(lp1
(lp2
I43
aI54
aI0
aa(lp3
I26
aI31
aI0
aa(lp4
I24
aI23
aI0
aa(lp5
I19
aI19
aI0
aa(lp6
I35
aI35
aI0
aa(lp7
I34
aI34
aI0
aa(lp8
I30
aI29
aI0
aa(lp9
I28
aI31
aI0
aa(lp10
I55
aI69
aI0
aa(lp11
I22
aI25
aI0
aa.