(lp1
(lp2
I29
aI28
aI0
aa(lp3
I19
aI20
aI0
aa(lp4
I17
aI16
aI0
aa(lp5
I14
aI14
aI0
aa(lp6
I25
aI26
aI0
aa(lp7
I26
aI25
aI0
aa(lp8
I42
aI53
aI0
aa(lp9
I24
aI22
aI0
aa(lp10
I27
aI30
aI0
aa(lp11
I12
aI13
aI0
aa(lp12
I17
aI17
aI0
aa(lp13
I24
aI24
aI0
aa(lp14
I16
aI18
aI0
aa(lp15
I41
aI44
aI0
aa(lp16
I22
aI22
aI0
aa(lp17
I19
aI19
aI0
aa(lp18
I16
aI15
aI0
aa(lp19
I21
aI21
aI0
aa(lp20
I32
aI34
aI0
aa(lp21
I22
aI22
aI0
aa(lp22
I13
aI12
aI0
aa(lp23
I19
aI18
aI0
aa(lp24
I19
aI34
aI0
aa(lp25
I12
aI11
aI0
aa(lp26
I15
aI16
aI0
aa(lp27
I23
aI22
aI0
aa(lp28
I11
aI10
aI0
aa(lp29
I16
aI15
aI0
aa(lp30
I22
aI21
aI0
aa(lp31
I17
aI18
aI0
aa(lp32
I32
aI34
aI0
aa(lp33
I11
aI11
aI0
aa(lp34
I22
aI21
aI0
aa(lp35
I16
aI18
aI0
aa(lp36
I26
aI29
aI0
aa(lp37
I23
aI25
aI0
aa(lp38
I11
aI10
aI0
aa(lp39
I33
aI32
aI0
aa(lp40
I20
aI19
aI0
aa(lp41
I19
aI21
aI0
aa(lp42
I43
aI46
aI0
aa(lp43
I5
aI4
aI0
aa(lp44
I21
aI23
aI0
aa(lp45
I22
aI22
aI0
aa(lp46
I19
aI18
aI0
aa(lp47
I27
aI28
aI0
aa(lp48
I24
aI24
aI0
aa(lp49
I26
aI25
aI0
aa.