(lp1
(lp2
I22
aI21
aI0
aa(lp3
I16
aI16
aI0
aa(lp4
I18
aI17
aI0
aa(lp5
I62
aI72
aI0
aa(lp6
I33
aI36
aI0
aa(lp7
I47
aI53
aI0
aa(lp8
I45
aI52
aI0
aa(lp9
I42
aI44
aI0
aa(lp10
I32
aI34
aI0
aa(lp11
I14
aI15
aI0
aa(lp12
I35
aI39
aI0
aa(lp13
I39
aI38
aI0
aa(lp14
I15
aI15
aI0
aa(lp15
I45
aI50
aI0
aa(lp16
I46
aI47
aI0
aa(lp17
I65
aI62
aI0
aa(lp18
I34
aI33
aI0
aa(lp19
I23
aI26
aI0
aa(lp20
I44
aI64
aI0
aa(lp21
I44
aI45
aI0
aa(lp22
I35
aI38
aI0
aa(lp23
I15
aI16
aI0
aa(lp24
I33
aI39
aI0
aa(lp25
I28
aI29
aI0
aa(lp26
I17
aI17
aI0
aa(lp27
I43
aI42
aI0
aa(lp28
I39
aI42
aI0
aa(lp29
I32
aI31
aI0
aa(lp30
I28
aI30
aI0
aa(lp31
I20
aI20
aI0
aa(lp32
I12
aI12
aI0
aa(lp33
I33
aI34
aI0
aa(lp34
I33
aI35
aI0
aa(lp35
I20
aI18
aI0
aa(lp36
I52
aI54
aI0
aa(lp37
I40
aI42
aI0
aa(lp38
I33
aI30
aI0
aa(lp39
I44
aI47
aI0
aa(lp40
I35
aI35
aI0
aa(lp41
I23
aI22
aI0
aa(lp42
I35
aI30
aI0
aa(lp43
I42
aI44
aI0
aa(lp44
I9
aI8
aI0
aa(lp45
I27
aI29
aI0
aa(lp46
I54
aI52
aI0
aa(lp47
I22
aI20
aI0
aa(lp48
I20
aI21
aI0
aa(lp49
I12
aI11
aI0
aa(lp50
I16
aI15
aI0
aa(lp51
I20
aI23
aI0
aa(lp52
I39
aI37
aI0
aa(lp53
I54
aI81
aI0
aa(lp54
I28
aI28
aI0
aa(lp55
I26
aI28
aI0
aa.