(lp1
(lp2
I25
aI25
aI0
aI1
aa(lp3
I39
aI28
aI0
aI3
aa(lp4
I19
aI18
aI0
aI2
aa(lp5
I19
aI24
aI0
aI4
aa(lp6
I25
aI19
aI0
aI0
aa(lp7
I31
aI22
aI0
aI2
aa(lp8
I32
aI30
aI0
aI0
aa(lp9
I28
aI27
aI0
aI0
aa(lp10
I54
aI57
aI0
aI0
aa(lp11
I50
aI34
aI0
aI0
aa(lp12
I30
aI31
aI0
aI0
aa(lp13
I30
aI31
aI0
aI2
aa(lp14
I30
aI32
aI0
aI1
aa(lp15
I26
aI25
aI0
aI4
aa(lp16
I73
aI69
aI0
aI0
aa(lp17
I34
aI31
aI0
aI0
aa(lp18
I40
aI33
aI0
aI5
aa(lp19
I36
aI33
aI0
aI2
aa(lp20
I39
aI44
aI0
aI0
aa(lp21
I34
aI37
aI0
aI0
aa(lp22
I36
aI41
aI0
aI2
aa(lp23
I63
aI37
aI0
aI0
aa(lp24
I45
aI41
aI0
aI2
aa(lp25
I39
aI37
aI0
aI5
aa(lp26
I28
aI22
aI0
aI0
aa(lp27
I34
aI32
aI0
aI2
aa(lp28
I11
aI11
aI0
aI0
aa(lp29
I33
aI34
aI0
aI2
aa(lp30
I31
aI28
aI0
aI0
aa(lp31
I31
aI23
aI0
aI1
aa(lp32
I25
aI18
aI0
aI0
aa(lp33
I44
aI39
aI0
aI2
aa(lp34
I21
aI25
aI0
aI0
aa(lp35
I33
aI39
aI0
aI6
aa(lp36
I38
aI45
aI0
aI0
aa(lp37
I29
aI30
aI0
aI0
aa(lp38
I33
aI32
aI0
aI0
aa(lp39
I30
aI29
aI0
aI0
aa(lp40
I28
aI27
aI0
aI1
aa(lp41
I27
aI29
aI0
aI0
aa(lp42
I21
aI21
aI0
aI0
aa(lp43
I30
aI30
aI0
aI0
aa(lp44
I25
aI26
aI0
aI0
aa(lp45
I26
aI18
aI0
aI2
aa(lp46
I34
aI24
aI0
aI0
aa(lp47
I29
aI30
aI0
aI2
aa(lp48
I26
aI25
aI0
aI1
aa(lp49
I30
aI30
aI0
aI4
aa(lp50
I19
aI17
aI0
aI2
aa.