(lp1
(lp2
I48
aI52
aI0
aa(lp3
I25
aI25
aI0
aa(lp4
I28
aI28
aI0
aa(lp5
I20
aI20
aI0
aa(lp6
I37
aI37
aI0
aa(lp7
I37
aI38
aI0
aa(lp8
I29
aI29
aI0
aa(lp9
I28
aI31
aI0
aa(lp10
I56
aI52
aI0
aa(lp11
I23
aI27
aI0
aa.