(lp1
(lp2
I11
aI5
aI1
aI2
aa(lp3
I65
aI62
aI0
aI0
aa(lp4
I15
aI15
aI0
aI0
aa(lp5
I7
aI6
aI0
aI0
aa(lp6
I9
aI9
aI0
aI0
aa(lp7
I26
aI27
aI0
aI1
aa(lp8
I19
aI20
aI0
aI0
aa(lp9
I28
aI25
aI0
aI2
aa(lp10
I41
aI45
aI0
aI0
aa(lp11
I11
aI12
aI0
aI0
aa(lp12
I42
aI43
aI0
aI1
aa(lp13
I25
aI26
aI0
aI0
aa(lp14
I14
aI12
aI0
aI0
aa(lp15
I25
aI28
aI0
aI1
aa(lp16
I22
aI25
aI0
aI0
aa(lp17
I11
aI14
aI0
aI0
aa(lp18
I26
aI26
aI0
aI0
aa(lp19
I10
aI10
aI0
aI0
aa(lp20
I36
aI37
aI0
aI0
aa(lp21
I15
aI13
aI0
aI0
aa(lp22
I38
aI42
aI0
aI0
aa(lp23
I23
aI25
aI0
aI0
aa(lp24
I6
aI5
aI0
aI0
aa(lp25
I27
aI32
aI0
aI0
aa(lp26
I34
aI36
aI0
aI0
aa(lp27
I21
aI21
aI0
aI0
aa(lp28
I54
aI66
aI0
aI0
aa(lp29
I29
aI31
aI0
aI0
aa(lp30
I18
aI18
aI0
aI0
aa(lp31
I17
aI16
aI0
aI0
aa(lp32
I16
aI16
aI0
aI0
aa(lp33
I24
aI24
aI0
aI0
aa(lp34
I21
aI20
aI0
aI0
aa(lp35
I22
aI21
aI0
aI0
aa(lp36
I18
aI23
aI0
aI0
aa(lp37
I14
aI13
aI0
aI0
aa(lp38
I36
aI34
aI0
aI0
aa(lp39
I33
aI39
aI0
aI2
aa(lp40
I60
aI60
aI0
aI2
aa(lp41
I52
aI57
aI0
aI0
aa(lp42
I21
aI21
aI0
aI0
aa(lp43
I20
aI20
aI0
aI0
aa(lp44
I78
aI102
aI0
aI0
aa(lp45
I26
aI27
aI0
aI1
aa(lp46
I31
aI34
aI0
aI1
aa(lp47
I14
aI15
aI0
aI1
aa(lp48
I25
aI27
aI0
aI0
aa(lp49
I22
aI21
aI0
aI0
aa(lp50
I27
aI26
aI0
aI0
aa(lp51
I24
aI26
aI0
aI0
aa(lp52
I15
aI12
aI0
aI0
aa(lp53
I9
aI8
aI0
aI0
aa(lp54
I23
aI24
aI0
aI0
aa(lp55
I33
aI30
aI0
aI0
aa(lp56
I21
aI27
aI0
aI0
aa(lp57
I36
aI40
aI0
aI0
aa.