(lp1
(lp2
I22
aI16
aI0
aI0
aa(lp3
I38
aI37
aI0
aI0
aa(lp4
I15
aI13
aI0
aI0
aa(lp5
I28
aI26
aI0
aI0
aa(lp6
I30
aI30
aI0
aI0
aa(lp7
I42
aI45
aI0
aI0
aa(lp8
I21
aI19
aI0
aI0
aa(lp9
I28
aI24
aI0
aI0
aa(lp10
I7
aI6
aI0
aI0
aa(lp11
I51
aI54
aI0
aI0
aa(lp12
I55
aI61
aI0
aI0
aa(lp13
I40
aI39
aI0
aI0
aa(lp14
I23
aI24
aI0
aI0
aa(lp15
I15
aI12
aI0
aI0
aa(lp16
I25
aI30
aI0
aI0
aa(lp17
I20
aI14
aI0
aI0
aa(lp18
I38
aI38
aI0
aI0
aa(lp19
I37
aI36
aI0
aI0
aa(lp20
I43
aI41
aI0
aI0
aa(lp21
I20
aI18
aI0
aI0
aa(lp22
I24
aI26
aI0
aI0
aa(lp23
I32
aI29
aI0
aI0
aa(lp24
I13
aI11
aI0
aI0
aa(lp25
I44
aI43
aI0
aI0
aa(lp26
I20
aI19
aI0
aI0
aa(lp27
I40
aI38
aI0
aI0
aa(lp28
I35
aI34
aI0
aI0
aa(lp29
I39
aI36
aI0
aI0
aa(lp30
I21
aI21
aI0
aI0
aa(lp31
I39
aI42
aI0
aI0
aa(lp32
I46
aI45
aI0
aI0
aa(lp33
I24
aI23
aI0
aI0
aa(lp34
I77
aI78
aI0
aI0
aa(lp35
I40
aI41
aI0
aI0
aa(lp36
I26
aI24
aI0
aI0
aa(lp37
I21
aI20
aI0
aI0
aa(lp38
I35
aI34
aI0
aI0
aa(lp39
I14
aI13
aI0
aI0
aa(lp40
I9
aI8
aI0
aI0
aa(lp41
I22
aI23
aI0
aI0
aa(lp42
I34
aI32
aI0
aI0
aa(lp43
I22
aI24
aI0
aI0
aa(lp44
I33
aI31
aI0
aI0
aa(lp45
I25
aI26
aI0
aI0
aa(lp46
I31
aI29
aI0
aI0
aa(lp47
I33
aI34
aI0
aI0
aa(lp48
I32
aI31
aI0
aI0
aa(lp49
I31
aI33
aI0
aI0
aa(lp50
I22
aI21
aI0
aI0
aa(lp51
I25
aI24
aI0
aI0
aa(lp52
I51
aI46
aI0
aI0
aa(lp53
I24
aI25
aI0
aI0
aa.