(lp1
(lp2
I15
aI17
aI0
aI0
aa(lp3
I26
aI30
aI0
aI0
aa(lp4
I21
aI22
aI0
aI0
aa(lp5
I32
aI38
aI0
aI0
aa(lp6
I16
aI15
aI0
aI0
aa(lp7
I26
aI27
aI0
aI0
aa(lp8
I4
aI3
aI0
aI0
aa(lp9
I19
aI18
aI0
aI0
aa(lp10
I38
aI42
aI0
aI0
aa(lp11
I37
aI37
aI0
aI0
aa(lp12
I2
aI1
aI0
aI0
aa(lp13
I31
aI31
aI0
aI0
aa(lp14
I23
aI24
aI0
aI0
aa(lp15
I26
aI27
aI0
aI0
aa(lp16
I19
aI22
aI0
aI0
aa(lp17
I27
aI27
aI0
aI0
aa(lp18
I25
aI30
aI0
aI0
aa(lp19
I18
aI18
aI0
aI0
aa(lp20
I19
aI19
aI0
aI0
aa.