(lp1
(lp2
I25
aI2
aI0
aI2
aa(lp3
I35
aI16
aI0
aI1
aa(lp4
I9
aI1
aI0
aI0
aa(lp5
I1
aI0
aI0
aI0
aa(lp6
I9
aI5
aI0
aI0
aa(lp7
I1
aI0
aI0
aI0
aa(lp8
I1
aI0
aI0
aI0
aa(lp9
I1
aI0
aI0
aI0
aa(lp10
I1
aI0
aI0
aI0
aa(lp11
I1
aI0
aI0
aI0
aa(lp12
I1
aI0
aI0
aI0
aa(lp13
I1
aI0
aI0
aI0
aa(lp14
I1
aI0
aI0
aI0
aa(lp15
I1
aI0
aI0
aI0
aa(lp16
I1
aI0
aI0
aI0
aa(lp17
I1
aI0
aI0
aI0
aa(lp18
I1
aI0
aI0
aI0
aa(lp19
I1
aI0
aI0
aI0
aa(lp20
I1
aI0
aI0
aI0
aa(lp21
I1
aI0
aI0
aI0
aa(lp22
I1
aI0
aI0
aI0
aa(lp23
I1
aI0
aI0
aI0
aa(lp24
I1
aI0
aI0
aI0
aa(lp25
I1
aI0
aI0
aI0
aa(lp26
I1
aI0
aI0
aI0
aa(lp27
I1
aI0
aI0
aI0
aa(lp28
I1
aI0
aI0
aI0
aa(lp29
I1
aI0
aI0
aI0
aa(lp30
I1
aI0
aI0
aI0
aa(lp31
I1
aI0
aI0
aI0
aa(lp32
I1
aI0
aI0
aI0
aa(lp33
I1
aI0
aI0
aI0
aa(lp34
I1
aI0
aI0
aI0
aa(lp35
I1
aI0
aI0
aI0
aa(lp36
I1
aI0
aI0
aI0
aa(lp37
I1
aI0
aI0
aI0
aa(lp38
I1
aI0
aI0
aI0
aa(lp39
I1
aI0
aI0
aI0
aa(lp40
I1
aI0
aI0
aI0
aa(lp41
I1
aI0
aI0
aI0
aa(lp42
I1
aI0
aI0
aI0
aa(lp43
I1
aI0
aI0
aI0
aa(lp44
I1
aI0
aI0
aI0
aa(lp45
I1
aI0
aI0
aI0
aa(lp46
I1
aI0
aI0
aI0
aa(lp47
I1
aI0
aI0
aI0
aa(lp48
I14
aI14
aI0
aI0
aa(lp49
I1
aI0
aI0
aI0
aa(lp50
I1
aI0
aI0
aI0
aa(lp51
I1
aI0
aI0
aI0
aa(lp52
I1
aI0
aI0
aI0
aa.