(lp1
(lp2
I56
aI59
aI0
aa(lp3
I28
aI30
aI0
aa(lp4
I38
aI36
aI0
aa(lp5
I20
aI19
aI0
aa(lp6
I41
aI45
aI0
aa(lp7
I41
aI42
aI0
aa(lp8
I32
aI30
aI0
aa(lp9
I33
aI34
aI0
aa(lp10
I62
aI56
aI0
aa(lp11
I26
aI32
aI0
aa.